target datalayout = "e-m:e-p270:32:32-p271:32:32-p272:64:64-i64:64-i128:128-f80:128-n8:16:32:64-S128"
target triple = "x86_64-pc-linux-gnu"

%struct.ident_t = type { i32, i32, i32, i32, ptr }
%"class.std::__cxx11::basic_string" = type { %"struct.std::__cxx11::basic_string<char>::_Alloc_hider", i64, %union.anon }
%"struct.std::__cxx11::basic_string<char>::_Alloc_hider" = type { ptr }
%union.anon = type { i64, [8 x i8] }
%"class.LightGBM::Metric" = type { ptr }
%"class.std::vector" = type { %"struct.std::_Vector_base" }
%"struct.std::_Vector_base" = type { %"struct.std::_Vector_base<std::__cxx11::basic_string<char>, std::allocator<std::__cxx11::basic_string<char>>>::_Vector_impl" }
%"struct.std::_Vector_base<std::__cxx11::basic_string<char>, std::allocator<std::__cxx11::basic_string<char>>>::_Vector_impl" = type { %"struct.std::_Vector_base<std::__cxx11::basic_string<char>, std::allocator<std::__cxx11::basic_string<char>>>::_Vector_impl_data" }
%"struct.std::_Vector_base<std::__cxx11::basic_string<char>, std::allocator<std::__cxx11::basic_string<char>>>::_Vector_impl_data" = type { ptr, ptr, ptr }
%"class.std::vector.18" = type { %"struct.std::_Vector_base.19" }
%"struct.std::_Vector_base.19" = type { %"struct.std::_Vector_base<std::vector<double>, std::allocator<std::vector<double>>>::_Vector_impl" }
%"struct.std::_Vector_base<std::vector<double>, std::allocator<std::vector<double>>>::_Vector_impl" = type { %"struct.std::_Vector_base<std::vector<double>, std::allocator<std::vector<double>>>::_Vector_impl_data" }
%"struct.std::_Vector_base<std::vector<double>, std::allocator<std::vector<double>>>::_Vector_impl_data" = type { ptr, ptr, ptr }
%"class.std::vector.8" = type { %"struct.std::_Vector_base.9" }
%"struct.std::_Vector_base.9" = type { %"struct.std::_Vector_base<double, std::allocator<double>>::_Vector_impl" }
%"struct.std::_Vector_base<double, std::allocator<double>>::_Vector_impl" = type { %"struct.std::_Vector_base<double, std::allocator<double>>::_Vector_impl_data" }
%"struct.std::_Vector_base<double, std::allocator<double>>::_Vector_impl_data" = type { ptr, ptr, ptr }
%"struct.LightGBM::Config" = type { %"class.std::__cxx11::basic_string", i32, %"class.std::__cxx11::basic_string", %"class.std::__cxx11::basic_string", %"class.std::__cxx11::basic_string", %"class.std::__cxx11::basic_string", %"class.std::vector", i32, double, i32, %"class.std::__cxx11::basic_string", i32, %"class.std::__cxx11::basic_string", i32, i8, i8, i8, double, i32, i32, double, double, double, double, i32, i32, i8, double, double, i32, i8, i32, i32, double, i8, double, double, double, double, double, double, i32, double, i8, i8, i32, double, double, i32, i32, double, double, i32, i32, %"class.std::vector.3", %"class.std::__cxx11::basic_string", double, %"class.std::vector.8", %"class.std::__cxx11::basic_string", double, double, double, %"class.std::vector.8", %"class.std::vector.8", double, %"class.std::__cxx11::basic_string", i32, %"class.std::__cxx11::basic_string", %"class.std::__cxx11::basic_string", i32, i32, i8, i32, i8, i8, i8, i32, %"class.std::vector.13", i32, i32, i32, i8, i8, i8, i8, i8, i8, i8, i8, %"class.std::__cxx11::basic_string", %"class.std::__cxx11::basic_string", %"class.std::__cxx11::basic_string", %"class.std::__cxx11::basic_string", %"class.std::__cxx11::basic_string", %"class.std::__cxx11::basic_string", i8, i8, %"class.std::__cxx11::basic_string", i32, i32, i8, i8, i8, i8, i8, i32, double, %"class.std::__cxx11::basic_string", %"class.std::__cxx11::basic_string", %"class.std::__cxx11::basic_string", i32, i32, i8, double, double, i8, i8, double, double, double, double, i32, i8, %"class.std::vector.8", double, %"class.std::vector", i32, i8, %"class.std::vector.13", i32, %"class.std::vector.8", i32, i32, i32, %"class.std::__cxx11::basic_string", %"class.std::__cxx11::basic_string", i32, i32, i8, i32, i64, i8, i8, %"class.std::vector.18", %"class.std::vector.23" }
%"class.std::vector.3" = type { %"struct.std::_Vector_base.4" }
%"struct.std::_Vector_base.4" = type { %"struct.std::_Vector_base<signed char, std::allocator<signed char>>::_Vector_impl" }
%"struct.std::_Vector_base<signed char, std::allocator<signed char>>::_Vector_impl" = type { %"struct.std::_Vector_base<signed char, std::allocator<signed char>>::_Vector_impl_data" }
%"struct.std::_Vector_base<signed char, std::allocator<signed char>>::_Vector_impl_data" = type { ptr, ptr, ptr }
%"class.std::vector.23" = type { %"struct.std::_Vector_base.24" }
%"struct.std::_Vector_base.24" = type { %"struct.std::_Vector_base<std::vector<int>, std::allocator<std::vector<int>>>::_Vector_impl" }
%"struct.std::_Vector_base<std::vector<int>, std::allocator<std::vector<int>>>::_Vector_impl" = type { %"struct.std::_Vector_base<std::vector<int>, std::allocator<std::vector<int>>>::_Vector_impl_data" }
%"struct.std::_Vector_base<std::vector<int>, std::allocator<std::vector<int>>>::_Vector_impl_data" = type { ptr, ptr, ptr }
%"class.std::vector.13" = type { %"struct.std::_Vector_base.14" }
%"struct.std::_Vector_base.14" = type { %"struct.std::_Vector_base<int, std::allocator<int>>::_Vector_impl" }
%"struct.std::_Vector_base<int, std::allocator<int>>::_Vector_impl" = type { %"struct.std::_Vector_base<int, std::allocator<int>>::_Vector_impl_data" }
%"struct.std::_Vector_base<int, std::allocator<int>>::_Vector_impl_data" = type { ptr, ptr, ptr }
%"class.LightGBM::RegressionMetric.29" = type { %"class.LightGBM::Metric", i32, ptr, ptr, double, %"struct.LightGBM::Config", %"class.std::vector" }

@1 = private unnamed_addr constant %struct.ident_t { i32 0, i32 514, i32 0, i32 22, ptr @0 }, align 8
@.gomp_critical_user_.reduction.var = common global [8 x i32] zeroinitializer, align 8
@2 = private unnamed_addr constant %struct.ident_t { i32 0, i32 18, i32 0, i32 22, ptr @0 }, align 8

; Function Attrs: noinline noreturn nounwind uwtable
define linkonce_odr hidden void @__clang_call_terminate(ptr noundef %0) #10 comdat {
  %2 = call ptr @__cxa_begin_catch(ptr %0) #3
  call void @_ZSt9terminatev() #27
  unreachable
}

; Function Attrs: inlinehint mustprogress nounwind uwtable
define linkonce_odr noundef double @_ZN8LightGBM8L1Metric11LossOnPointEfdRKNS_6ConfigE(float noundef %0, double noundef %1, ptr noundef nonnull align 8 dereferenceable(1624) %2) #5 comdat align 2 {
  %4 = alloca float, align 4
  %5 = alloca double, align 8
  %6 = alloca ptr, align 8
  store float %0, ptr %4, align 4, !tbaa !130
  store double %1, ptr %5, align 8, !tbaa !138
  store ptr %2, ptr %6, align 8, !tbaa !9
  %7 = load double, ptr %5, align 8, !tbaa !138
  %8 = load float, ptr %4, align 4, !tbaa !130
  %9 = fpext float %8 to double
  %10 = fsub double %7, %9
  %11 = call double @llvm.fabs.f64(double %10)
  ret double %11
}

; Function Attrs: alwaysinline norecurse nounwind uwtable
define internal void @_ZNK8LightGBM16RegressionMetricINS_8L1MetricEE4EvalEPKdPKNS_17ObjectiveFunctionE.omp_outlined(ptr noalias noundef %0, ptr noalias noundef %1, ptr noundef %2, ptr noundef nonnull align 8 dereferenceable(8) %3, ptr noundef nonnull align 8 dereferenceable(8) %4) #17 personality ptr @__gxx_personality_v0 {
  %6 = alloca ptr, align 8
  %7 = alloca ptr, align 8
  %8 = alloca ptr, align 8
  %9 = alloca ptr, align 8
  %10 = alloca ptr, align 8
  %11 = alloca i32, align 4
  %12 = alloca i32, align 4
  %13 = alloca i32, align 4
  %14 = alloca i32, align 4
  %15 = alloca i32, align 4
  %16 = alloca i32, align 4
  %17 = alloca i32, align 4
  %18 = alloca i32, align 4
  %19 = alloca double, align 8
  %20 = alloca i32, align 4
  %21 = alloca [1 x ptr], align 8
  store ptr %0, ptr %6, align 8, !tbaa !234
  store ptr %1, ptr %7, align 8, !tbaa !234
  store ptr %2, ptr %8, align 8, !tbaa !317
  store ptr %3, ptr %9, align 8, !tbaa !135
  store ptr %4, ptr %10, align 8, !tbaa !222
  %22 = load ptr, ptr %8, align 8, !tbaa !317
  %23 = load ptr, ptr %9, align 8, !tbaa !135
  %24 = load ptr, ptr %10, align 8, !tbaa !222
  call void @llvm.lifetime.start.p0(i64 4, ptr %11) #3
  call void @llvm.lifetime.start.p0(i64 4, ptr %12) #3
  %25 = getelementptr inbounds nuw %"class.LightGBM::RegressionMetric.29", ptr %22, i32 0, i32 1
  %26 = load i32, ptr %25, align 8, !tbaa !319
  store i32 %26, ptr %12, align 4, !tbaa !124
  call void @llvm.lifetime.start.p0(i64 4, ptr %13) #3
  %27 = load i32, ptr %12, align 4, !tbaa !124
  %28 = sub nsw i32 %27, 0
  %29 = sdiv i32 %28, 1
  %30 = sub nsw i32 %29, 1
  store i32 %30, ptr %13, align 4, !tbaa !124
  call void @llvm.lifetime.start.p0(i64 4, ptr %14) #3
  store i32 0, ptr %14, align 4, !tbaa !124
  call void @llvm.lifetime.end.p0(i64 4, ptr %14) #3
  %31 = load i32, ptr %12, align 4, !tbaa !124
  %32 = icmp slt i32 0, %31
  br i1 %32, label %33, label %92

33:                                               ; preds = %5
  call void @llvm.lifetime.start.p0(i64 4, ptr %15) #3
  store i32 0, ptr %15, align 4, !tbaa !124
  call void @llvm.lifetime.start.p0(i64 4, ptr %16) #3
  %34 = load i32, ptr %13, align 4, !tbaa !124
  store i32 %34, ptr %16, align 4, !tbaa !124
  call void @llvm.lifetime.start.p0(i64 4, ptr %17) #3
  store i32 1, ptr %17, align 4, !tbaa !124
  call void @llvm.lifetime.start.p0(i64 4, ptr %18) #3
  store i32 0, ptr %18, align 4, !tbaa !124
  call void @llvm.lifetime.start.p0(i64 8, ptr %19) #3
  store double 0.000000e+00, ptr %19, align 8, !tbaa !138
  call void @llvm.lifetime.start.p0(i64 4, ptr %20) #3
  %35 = load ptr, ptr %6, align 8
  %36 = load i32, ptr %35, align 4, !tbaa !124
  call void @__kmpc_for_static_init_4(ptr @1, i32 %36, i32 34, ptr %18, ptr %15, ptr %16, ptr %17, i32 1, i32 1)
  %37 = load i32, ptr %16, align 4, !tbaa !124
  %38 = load i32, ptr %13, align 4, !tbaa !124
  %39 = icmp sgt i32 %37, %38
  br i1 %39, label %40, label %42

40:                                               ; preds = %33
  %41 = load i32, ptr %13, align 4, !tbaa !124
  br label %44

42:                                               ; preds = %33
  %43 = load i32, ptr %16, align 4, !tbaa !124
  br label %44

44:                                               ; preds = %42, %40
  %45 = phi i32 [ %41, %40 ], [ %43, %42 ]
  store i32 %45, ptr %16, align 4, !tbaa !124
  %46 = load i32, ptr %15, align 4, !tbaa !124
  store i32 %46, ptr %11, align 4, !tbaa !124
  br label %47

47:                                               ; preds = %73, %44
  %48 = load i32, ptr %11, align 4, !tbaa !124
  %49 = load i32, ptr %16, align 4, !tbaa !124
  %50 = icmp sle i32 %48, %49
  br i1 %50, label %52, label %51

51:                                               ; preds = %47
  br label %76

52:                                               ; preds = %47
  %53 = load i32, ptr %11, align 4, !tbaa !124
  %54 = mul nsw i32 %53, 1
  %55 = add nsw i32 0, %54
  store i32 %55, ptr %20, align 4, !tbaa !124
  %56 = getelementptr inbounds nuw %"class.LightGBM::RegressionMetric.29", ptr %22, i32 0, i32 2
  %57 = load ptr, ptr %56, align 8, !tbaa !321
  %58 = load i32, ptr %20, align 4, !tbaa !124
  %59 = sext i32 %58 to i64
  %60 = getelementptr inbounds float, ptr %57, i64 %59
  %61 = load float, ptr %60, align 4, !tbaa !130
  %62 = load ptr, ptr %24, align 8, !tbaa !135
  %63 = load i32, ptr %20, align 4, !tbaa !124
  %64 = sext i32 %63 to i64
  %65 = getelementptr inbounds double, ptr %62, i64 %64
  %66 = load double, ptr %65, align 8, !tbaa !138
  %67 = getelementptr inbounds nuw %"class.LightGBM::RegressionMetric.29", ptr %22, i32 0, i32 5
  %68 = invoke noundef double @_ZN8LightGBM8L1Metric11LossOnPointEfdRKNS_6ConfigE(float noundef %61, double noundef %66, ptr noundef nonnull align 8 dereferenceable(1624) %67)
          to label %69 unwind label %93

69:                                               ; preds = %52
  %70 = load double, ptr %19, align 8, !tbaa !138
  %71 = fadd double %70, %68
  store double %71, ptr %19, align 8, !tbaa !138
  br label %72

72:                                               ; preds = %69
  br label %73

73:                                               ; preds = %72
  %74 = load i32, ptr %11, align 4, !tbaa !124
  %75 = add nsw i32 %74, 1
  store i32 %75, ptr %11, align 4, !tbaa !124
  br label %47

76:                                               ; preds = %51
  br label %77

77:                                               ; preds = %76
  %78 = load ptr, ptr %6, align 8
  %79 = load i32, ptr %78, align 4, !tbaa !124
  call void @__kmpc_for_static_fini(ptr @1, i32 %79)
  %80 = getelementptr inbounds [1 x ptr], ptr %21, i64 0, i64 0
  store ptr %19, ptr %80, align 8
  %81 = load ptr, ptr %6, align 8
  %82 = load i32, ptr %81, align 4, !tbaa !124
  %83 = call i32 @__kmpc_reduce_nowait(ptr @2, i32 %82, i32 1, i64 8, ptr %21, ptr @_ZNK8LightGBM16RegressionMetricINS_8L1MetricEE4EvalEPKdPKNS_17ObjectiveFunctionE.omp_outlined.omp.reduction.reduction_func, ptr @.gomp_critical_user_.reduction.var)
  switch i32 %83, label %91 [
    i32 1, label %84
    i32 2, label %88
  ]

84:                                               ; preds = %77
  %85 = load double, ptr %23, align 8, !tbaa !138
  %86 = load double, ptr %19, align 8, !tbaa !138
  %87 = fadd double %85, %86
  store double %87, ptr %23, align 8, !tbaa !138
  call void @__kmpc_end_reduce_nowait(ptr @2, i32 %82, ptr @.gomp_critical_user_.reduction.var)
  br label %91

88:                                               ; preds = %77
  %89 = load double, ptr %19, align 8, !tbaa !138
  %90 = atomicrmw fadd ptr %23, double %89 monotonic, align 8
  br label %91

91:                                               ; preds = %88, %84, %77
  call void @llvm.lifetime.end.p0(i64 4, ptr %20) #3
  call void @llvm.lifetime.end.p0(i64 8, ptr %19) #3
  call void @llvm.lifetime.end.p0(i64 4, ptr %18) #3
  call void @llvm.lifetime.end.p0(i64 4, ptr %17) #3
  call void @llvm.lifetime.end.p0(i64 4, ptr %16) #3
  call void @llvm.lifetime.end.p0(i64 4, ptr %15) #3
  br label %92

92:                                               ; preds = %91, %5
  call void @llvm.lifetime.end.p0(i64 4, ptr %13) #3
  call void @llvm.lifetime.end.p0(i64 4, ptr %12) #3
  call void @llvm.lifetime.end.p0(i64 4, ptr %11) #3
  ret void

93:                                               ; preds = %52
  %94 = landingpad { ptr, i32 }
          catch ptr null
  %95 = extractvalue { ptr, i32 } %94, 0
  call void @__clang_call_terminate(ptr %95) #27
  unreachable
}